; Function Attrs: mustprogress uwtable
define void @_ZNK6casadi6Nlpsol9get_statsB5cxx11EPv(ptr dead_on_unwind noalias writable sret(%"class.std::map.6") align 8 %0, ptr noundef nonnull align 8 dereferenceable(1928) %1, ptr noundef %2) unnamed_addr #3 align 2 personality ptr @__gxx_personality_v0 {
  %4 = alloca %"class.casadi::GenericType", align 8
  %5 = alloca %"class.std::__cxx11::basic_string", align 8
  %6 = alloca %"class.std::allocator.0", align 1
  %7 = alloca %"class.casadi::GenericType", align 8
  %8 = alloca %"class.std::__cxx11::basic_string", align 8
  %9 = alloca %"class.std::__cxx11::basic_string", align 8
  %10 = alloca %"class.std::allocator.0", align 1
  tail call void @_ZNK6casadi14OracleFunction9get_statsB5cxx11EPv(ptr dead_on_unwind writable sret(%"class.std::map.6") align 8 %0, ptr noundef nonnull align 8 dereferenceable(1520) %1, ptr noundef %2)
  %11 = getelementptr inbounds i8, ptr %2, i64 360
  %12 = load i8, ptr %11, align 8
  %13 = and i8 %12, 1
  %14 = icmp ne i8 %13, 0
  invoke void @_ZN6casadi11GenericTypeC1Eb(ptr noundef nonnull align 8 dereferenceable(8) %4, i1 noundef zeroext %14)
          to label %15 unwind label %32

15:                                               ; preds = %3
  call void @_ZNSaIcEC1Ev(ptr noundef nonnull align 1 dereferenceable(1) %6) #26
  %16 = invoke noundef ptr @_ZNSt7__cxx1112basic_stringIcSt11char_traitsIcESaIcEE13_M_local_dataEv(ptr noundef nonnull align 8 dereferenceable(32) %5)
          to label %.noexc unwind label %34

.noexc:                                           ; preds = %15
  invoke void @_ZNSt7__cxx1112basic_stringIcSt11char_traitsIcESaIcEE12_Alloc_hiderC1EPcRKS3_(ptr noundef nonnull align 8 dereferenceable(8) %5, ptr noundef %16, ptr noundef nonnull align 1 dereferenceable(1) %6)
          to label %.noexc16 unwind label %34

.noexc16:                                         ; preds = %.noexc
  invoke void @_ZNSt7__cxx1112basic_stringIcSt11char_traitsIcESaIcEE12_M_constructIPKcEEvT_S8_St20forward_iterator_tag(ptr noundef nonnull align 8 dereferenceable(32) %5, ptr noundef nonnull @.str.188, ptr noundef nonnull getelementptr inbounds ([8 x i8], ptr @.str.188, i64 0, i64 7))
          to label %_ZNSt7__cxx1112basic_stringIcSt11char_traitsIcESaIcEEC2IS3_EEPKcRKS3_.exit unwind label %17

17:                                               ; preds = %.noexc16
  %18 = landingpad { ptr, i32 }
          cleanup
  call void @_ZNSaIcED2Ev(ptr noundef nonnull align 1 dereferenceable(1) %5) #26
  br label %.body

_ZNSt7__cxx1112basic_stringIcSt11char_traitsIcESaIcEEC2IS3_EEPKcRKS3_.exit: ; preds = %.noexc16
  %19 = invoke noundef nonnull align 8 dereferenceable(8) ptr @_ZNSt3mapINSt7__cxx1112basic_stringIcSt11char_traitsIcESaIcEEEN6casadi11GenericTypeESt4lessIS5_ESaISt4pairIKS5_S7_EEEixEOS5_(ptr noundef nonnull align 8 dereferenceable(48) %0, ptr noundef nonnull align 8 dereferenceable(32) %5)
          to label %20 unwind label %36

20:                                               ; preds = %_ZNSt7__cxx1112basic_stringIcSt11char_traitsIcESaIcEEC2IS3_EEPKcRKS3_.exit
  %21 = invoke noundef nonnull align 8 dereferenceable(8) ptr @_ZN6casadi12SharedObjectaSERKS0_(ptr noundef nonnull align 8 dereferenceable(8) %19, ptr noundef nonnull align 8 dereferenceable(8) %4)
          to label %_ZN6casadi11GenericTypeaSEOS0_.exit unwind label %36

_ZN6casadi11GenericTypeaSEOS0_.exit:              ; preds = %20
  call void @_ZNSt7__cxx1112basic_stringIcSt11char_traitsIcESaIcEED1Ev(ptr noundef nonnull align 8 dereferenceable(32) %5) #26
  call void @_ZNSaIcED1Ev(ptr noundef nonnull align 1 dereferenceable(1) %6) #26
  call void @_ZN6casadi12SharedObjectD2Ev(ptr noundef nonnull align 8 dereferenceable(8) %4) #26
  %22 = getelementptr inbounds i8, ptr %2, i64 364
  %23 = load i32, ptr %22, align 4
  invoke void @_ZN6casadi16FunctionInternal31string_from_UnifiedReturnStatusB5cxx11ENS_19UnifiedReturnStatusE(ptr dead_on_unwind nonnull writable sret(%"class.std::__cxx11::basic_string") align 8 %8, i32 noundef %23)
          to label %24 unwind label %32

24:                                               ; preds = %_ZN6casadi11GenericTypeaSEOS0_.exit
  invoke void @_ZN6casadi11GenericTypeC1ERKNSt7__cxx1112basic_stringIcSt11char_traitsIcESaIcEEE(ptr noundef nonnull align 8 dereferenceable(8) %7, ptr noundef nonnull align 8 dereferenceable(32) %8)
          to label %25 unwind label %38

25:                                               ; preds = %24
  call void @_ZNSaIcEC1Ev(ptr noundef nonnull align 1 dereferenceable(1) %10) #26
  %26 = invoke noundef ptr @_ZNSt7__cxx1112basic_stringIcSt11char_traitsIcESaIcEE13_M_local_dataEv(ptr noundef nonnull align 8 dereferenceable(32) %9)
          to label %.noexc18 unwind label %40

.noexc18:                                         ; preds = %25
  invoke void @_ZNSt7__cxx1112basic_stringIcSt11char_traitsIcESaIcEE12_Alloc_hiderC1EPcRKS3_(ptr noundef nonnull align 8 dereferenceable(8) %9, ptr noundef %26, ptr noundef nonnull align 1 dereferenceable(1) %10)
          to label %.noexc19 unwind label %40

.noexc19:                                         ; preds = %.noexc18
  invoke void @_ZNSt7__cxx1112basic_stringIcSt11char_traitsIcESaIcEE12_M_constructIPKcEEvT_S8_St20forward_iterator_tag(ptr noundef nonnull align 8 dereferenceable(32) %9, ptr noundef nonnull @.str.189, ptr noundef nonnull getelementptr inbounds ([22 x i8], ptr @.str.189, i64 0, i64 21))
          to label %_ZNSt7__cxx1112basic_stringIcSt11char_traitsIcESaIcEEC2IS3_EEPKcRKS3_.exit22 unwind label %27

27:                                               ; preds = %.noexc19
  %28 = landingpad { ptr, i32 }
          cleanup
  call void @_ZNSaIcED2Ev(ptr noundef nonnull align 1 dereferenceable(1) %9) #26
  br label %.body20

_ZNSt7__cxx1112basic_stringIcSt11char_traitsIcESaIcEEC2IS3_EEPKcRKS3_.exit22: ; preds = %.noexc19
  %29 = invoke noundef nonnull align 8 dereferenceable(8) ptr @_ZNSt3mapINSt7__cxx1112basic_stringIcSt11char_traitsIcESaIcEEEN6casadi11GenericTypeESt4lessIS5_ESaISt4pairIKS5_S7_EEEixEOS5_(ptr noundef nonnull align 8 dereferenceable(48) %0, ptr noundef nonnull align 8 dereferenceable(32) %9)
          to label %30 unwind label %42

30:                                               ; preds = %_ZNSt7__cxx1112basic_stringIcSt11char_traitsIcESaIcEEC2IS3_EEPKcRKS3_.exit22
  %31 = invoke noundef nonnull align 8 dereferenceable(8) ptr @_ZN6casadi12SharedObjectaSERKS0_(ptr noundef nonnull align 8 dereferenceable(8) %29, ptr noundef nonnull align 8 dereferenceable(8) %7)
          to label %_ZN6casadi11GenericTypeaSEOS0_.exit24 unwind label %42

_ZN6casadi11GenericTypeaSEOS0_.exit24:            ; preds = %30
  call void @_ZNSt7__cxx1112basic_stringIcSt11char_traitsIcESaIcEED1Ev(ptr noundef nonnull align 8 dereferenceable(32) %9) #26
  call void @_ZNSaIcED1Ev(ptr noundef nonnull align 1 dereferenceable(1) %10) #26
  call void @_ZN6casadi12SharedObjectD2Ev(ptr noundef nonnull align 8 dereferenceable(8) %7) #26
  call void @_ZNSt7__cxx1112basic_stringIcSt11char_traitsIcESaIcEED1Ev(ptr noundef nonnull align 8 dereferenceable(32) %8) #26
  ret void

32:                                               ; preds = %_ZN6casadi11GenericTypeaSEOS0_.exit, %3
  %33 = landingpad { ptr, i32 }
          cleanup
  br label %45

34:                                               ; preds = %.noexc, %15
  %35 = landingpad { ptr, i32 }
          cleanup
  br label %.body

36:                                               ; preds = %20, %_ZNSt7__cxx1112basic_stringIcSt11char_traitsIcESaIcEEC2IS3_EEPKcRKS3_.exit
  %37 = landingpad { ptr, i32 }
          cleanup
  call void @_ZNSt7__cxx1112basic_stringIcSt11char_traitsIcESaIcEED1Ev(ptr noundef nonnull align 8 dereferenceable(32) %5) #26
  br label %.body

.body:                                            ; preds = %34, %17, %36
  %.pn = phi { ptr, i32 } [ %37, %36 ], [ %35, %34 ], [ %18, %17 ]
  call void @_ZNSaIcED1Ev(ptr noundef nonnull align 1 dereferenceable(1) %6) #26
  call void @_ZN6casadi12SharedObjectD2Ev(ptr noundef nonnull align 8 dereferenceable(8) %4) #26
  br label %45

38:                                               ; preds = %24
  %39 = landingpad { ptr, i32 }
          cleanup
  br label %44

40:                                               ; preds = %.noexc18, %25
  %41 = landingpad { ptr, i32 }
          cleanup
  br label %.body20

42:                                               ; preds = %30, %_ZNSt7__cxx1112basic_stringIcSt11char_traitsIcESaIcEEC2IS3_EEPKcRKS3_.exit22
  %43 = landingpad { ptr, i32 }
          cleanup
  call void @_ZNSt7__cxx1112basic_stringIcSt11char_traitsIcESaIcEED1Ev(ptr noundef nonnull align 8 dereferenceable(32) %9) #26
  br label %.body20

.body20:                                          ; preds = %40, %27, %42
  %.pn12 = phi { ptr, i32 } [ %43, %42 ], [ %41, %40 ], [ %28, %27 ]
  call void @_ZNSaIcED1Ev(ptr noundef nonnull align 1 dereferenceable(1) %10) #26
  call void @_ZN6casadi12SharedObjectD2Ev(ptr noundef nonnull align 8 dereferenceable(8) %7) #26
  br label %44

44:                                               ; preds = %.body20, %38
  %.pn12.pn = phi { ptr, i32 } [ %.pn12, %.body20 ], [ %39, %38 ]
  call void @_ZNSt7__cxx1112basic_stringIcSt11char_traitsIcESaIcEED1Ev(ptr noundef nonnull align 8 dereferenceable(32) %8) #26
  br label %45

45:                                               ; preds = %44, %.body, %32
  %.pn12.pn.pn = phi { ptr, i32 } [ %.pn12.pn, %44 ], [ %33, %32 ], [ %.pn, %.body ]
  call void @_ZNSt3mapINSt7__cxx1112basic_stringIcSt11char_traitsIcESaIcEEEN6casadi11GenericTypeESt4lessIS5_ESaISt4pairIKS5_S7_EEED2Ev(ptr noundef nonnull align 8 dereferenceable(48) %0) #26
  resume { ptr, i32 } %.pn12.pn.pn
}